target datalayout = "e-m:e-p270:32:32-p271:32:32-p272:64:64-i64:64-i128:128-f80:128-n8:16:32:64-S128"
target triple = "x86_64-pc-linux-gnu"

%struct.hwloc_xml_backend_data_s = type { ptr, ptr, ptr, ptr, ptr, ptr, ptr, ptr, ptr, ptr, ptr, i32, i32, i8, i8, i8, i8, i8, i8 }
%struct.hwloc__xml_import_state_s = type { ptr, ptr, [32 x i8] }
%struct._xmlNode = type { ptr, i32, ptr, ptr, ptr, ptr, ptr, ptr, ptr, ptr, ptr, ptr, ptr, ptr, i16, i16 }
%struct.hwloc__libxml_import_state_data_s = type { ptr, ptr, ptr }
%struct._xmlAttr = type { ptr, i32, ptr, ptr, ptr, ptr, ptr, ptr, ptr, ptr, i32, ptr }

@stderr = external global ptr, align 8
@.str.12 = private unnamed_addr constant [47 x i8] c"%s: ignoring unexpected xml attr node type %u\0A\00", align 1
@.str.13 = private unnamed_addr constant [42 x i8] c"%s: ignoring unexpected xml attr type %u\0A\00", align 1

; Function Attrs: nounwind uwtable
define internal i32 @hwloc__libxml_import_next_attr(ptr noundef %0, ptr noundef %1, ptr noundef %2) #0 {
  %4 = alloca i32, align 4
  %5 = alloca ptr, align 8
  %6 = alloca ptr, align 8
  %7 = alloca ptr, align 8
  %8 = alloca ptr, align 8
  %9 = alloca ptr, align 8
  %10 = alloca ptr, align 8
  %11 = alloca i32, align 4
  store ptr %0, ptr %5, align 8, !tbaa !30
  store ptr %1, ptr %6, align 8, !tbaa !25
  store ptr %2, ptr %7, align 8, !tbaa !25
  call void @llvm.lifetime.start.p0(i64 8, ptr %8) #7
  %12 = load ptr, ptr %5, align 8, !tbaa !30
  %13 = getelementptr inbounds nuw %struct.hwloc__xml_import_state_s, ptr %12, i32 0, i32 2
  %14 = getelementptr inbounds [32 x i8], ptr %13, i64 0, i64 0
  store ptr %14, ptr %8, align 8, !tbaa !34
  call void @llvm.lifetime.start.p0(i64 8, ptr %9) #7
  %15 = load ptr, ptr %8, align 8, !tbaa !34
  %16 = getelementptr inbounds nuw %struct.hwloc__libxml_import_state_data_s, ptr %15, i32 0, i32 2
  %17 = load ptr, ptr %16, align 8, !tbaa !59
  %18 = icmp ne ptr %17, null
  br i1 %18, label %19, label %25

19:                                               ; preds = %3
  %20 = load ptr, ptr %8, align 8, !tbaa !34
  %21 = getelementptr inbounds nuw %struct.hwloc__libxml_import_state_data_s, ptr %20, i32 0, i32 2
  %22 = load ptr, ptr %21, align 8, !tbaa !59
  %23 = getelementptr inbounds nuw %struct._xmlAttr, ptr %22, i32 0, i32 6
  %24 = load ptr, ptr %23, align 8, !tbaa !65
  store ptr %24, ptr %9, align 8, !tbaa !67
  br label %31

25:                                               ; preds = %3
  %26 = load ptr, ptr %8, align 8, !tbaa !34
  %27 = getelementptr inbounds nuw %struct.hwloc__libxml_import_state_data_s, ptr %26, i32 0, i32 0
  %28 = load ptr, ptr %27, align 8, !tbaa !59
  %29 = getelementptr inbounds nuw %struct._xmlNode, ptr %28, i32 0, i32 11
  %30 = load ptr, ptr %29, align 8, !tbaa !68
  store ptr %30, ptr %9, align 8, !tbaa !67
  br label %31

31:                                               ; preds = %25, %19
  br label %32

32:                                               ; preds = %110, %31
  %33 = load ptr, ptr %9, align 8, !tbaa !67
  %34 = icmp ne ptr %33, null
  br i1 %34, label %35, label %114

35:                                               ; preds = %32
  %36 = load ptr, ptr %9, align 8, !tbaa !67
  %37 = getelementptr inbounds nuw %struct._xmlAttr, ptr %36, i32 0, i32 1
  %38 = load i32, ptr %37, align 8, !tbaa !69
  %39 = icmp eq i32 %38, 2
  br i1 %39, label %40, label %94

40:                                               ; preds = %35
  call void @llvm.lifetime.start.p0(i64 8, ptr %10) #7
  %41 = load ptr, ptr %9, align 8, !tbaa !67
  %42 = getelementptr inbounds nuw %struct._xmlAttr, ptr %41, i32 0, i32 3
  %43 = load ptr, ptr %42, align 8, !tbaa !70
  store ptr %43, ptr %10, align 8, !tbaa !46
  br label %44

44:                                               ; preds = %86, %40
  %45 = load ptr, ptr %10, align 8, !tbaa !46
  %46 = icmp ne ptr %45, null
  br i1 %46, label %47, label %90

47:                                               ; preds = %44
  %48 = load ptr, ptr %10, align 8, !tbaa !46
  %49 = getelementptr inbounds nuw %struct._xmlNode, ptr %48, i32 0, i32 1
  %50 = load i32, ptr %49, align 8, !tbaa !71
  %51 = icmp eq i32 %50, 3
  br i1 %51, label %52, label %70

52:                                               ; preds = %47
  %53 = load ptr, ptr %10, align 8, !tbaa !46
  %54 = getelementptr inbounds nuw %struct._xmlNode, ptr %53, i32 0, i32 10
  %55 = load ptr, ptr %54, align 8, !tbaa !72
  %56 = icmp ne ptr %55, null
  br i1 %56, label %57, label %69

57:                                               ; preds = %52
  %58 = load ptr, ptr %9, align 8, !tbaa !67
  %59 = getelementptr inbounds nuw %struct._xmlAttr, ptr %58, i32 0, i32 2
  %60 = load ptr, ptr %59, align 8, !tbaa !73
  %61 = load ptr, ptr %6, align 8, !tbaa !25
  store ptr %60, ptr %61, align 8, !tbaa !7
  %62 = load ptr, ptr %10, align 8, !tbaa !46
  %63 = getelementptr inbounds nuw %struct._xmlNode, ptr %62, i32 0, i32 10
  %64 = load ptr, ptr %63, align 8, !tbaa !72
  %65 = load ptr, ptr %7, align 8, !tbaa !25
  store ptr %64, ptr %65, align 8, !tbaa !7
  %66 = load ptr, ptr %9, align 8, !tbaa !67
  %67 = load ptr, ptr %8, align 8, !tbaa !34
  %68 = getelementptr inbounds nuw %struct.hwloc__libxml_import_state_data_s, ptr %67, i32 0, i32 2
  store ptr %66, ptr %68, align 8, !tbaa !59
  store i32 0, ptr %4, align 4
  store i32 1, ptr %11, align 4
  br label %91

69:                                               ; preds = %52
  br label %85

70:                                               ; preds = %47
  %71 = call i32 @hwloc__xml_verbose()
  %72 = icmp ne i32 %71, 0
  br i1 %72, label %73, label %84

73:                                               ; preds = %70
  %74 = load ptr, ptr @stderr, align 8, !tbaa !38
  %75 = load ptr, ptr %5, align 8, !tbaa !30
  %76 = getelementptr inbounds nuw %struct.hwloc__xml_import_state_s, ptr %75, i32 0, i32 1
  %77 = load ptr, ptr %76, align 8, !tbaa !40
  %78 = getelementptr inbounds nuw %struct.hwloc_xml_backend_data_s, ptr %77, i32 0, i32 9
  %79 = load ptr, ptr %78, align 8, !tbaa !42
  %80 = load ptr, ptr %10, align 8, !tbaa !46
  %81 = getelementptr inbounds nuw %struct._xmlNode, ptr %80, i32 0, i32 1
  %82 = load i32, ptr %81, align 8, !tbaa !71
  %83 = call i32 (ptr, ptr, ...) @fprintf(ptr noundef %74, ptr noundef @.str.12, ptr noundef %79, i32 noundef %82) #7
  br label %84

84:                                               ; preds = %73, %70
  br label %85

85:                                               ; preds = %84, %69
  br label %86

86:                                               ; preds = %85
  %87 = load ptr, ptr %10, align 8, !tbaa !46
  %88 = getelementptr inbounds nuw %struct._xmlNode, ptr %87, i32 0, i32 6
  %89 = load ptr, ptr %88, align 8, !tbaa !74
  store ptr %89, ptr %10, align 8, !tbaa !46
  br label %44, !llvm.loop !75

90:                                               ; preds = %44
  store i32 0, ptr %11, align 4
  br label %91

91:                                               ; preds = %90, %57
  call void @llvm.lifetime.end.p0(i64 8, ptr %10) #7
  %92 = load i32, ptr %11, align 4
  switch i32 %92, label %115 [
    i32 0, label %93
  ]

93:                                               ; preds = %91
  br label %109

94:                                               ; preds = %35
  %95 = call i32 @hwloc__xml_verbose()
  %96 = icmp ne i32 %95, 0
  br i1 %96, label %97, label %108

97:                                               ; preds = %94
  %98 = load ptr, ptr @stderr, align 8, !tbaa !38
  %99 = load ptr, ptr %5, align 8, !tbaa !30
  %100 = getelementptr inbounds nuw %struct.hwloc__xml_import_state_s, ptr %99, i32 0, i32 1
  %101 = load ptr, ptr %100, align 8, !tbaa !40
  %102 = getelementptr inbounds nuw %struct.hwloc_xml_backend_data_s, ptr %101, i32 0, i32 9
  %103 = load ptr, ptr %102, align 8, !tbaa !42
  %104 = load ptr, ptr %9, align 8, !tbaa !67
  %105 = getelementptr inbounds nuw %struct._xmlAttr, ptr %104, i32 0, i32 1
  %106 = load i32, ptr %105, align 8, !tbaa !69
  %107 = call i32 (ptr, ptr, ...) @fprintf(ptr noundef %98, ptr noundef @.str.13, ptr noundef %103, i32 noundef %106) #7
  br label %108

108:                                              ; preds = %97, %94
  br label %109

109:                                              ; preds = %108, %93
  br label %110

110:                                              ; preds = %109
  %111 = load ptr, ptr %9, align 8, !tbaa !67
  %112 = getelementptr inbounds nuw %struct._xmlAttr, ptr %111, i32 0, i32 6
  %113 = load ptr, ptr %112, align 8, !tbaa !65
  store ptr %113, ptr %9, align 8, !tbaa !67
  br label %32, !llvm.loop !77

114:                                              ; preds = %32
  store i32 -1, ptr %4, align 4
  store i32 1, ptr %11, align 4
  br label %115

115:                                              ; preds = %114, %91
  call void @llvm.lifetime.end.p0(i64 8, ptr %9) #7
  call void @llvm.lifetime.end.p0(i64 8, ptr %8) #7
  %116 = load i32, ptr %4, align 4
  ret i32 %116
}