; Function Attrs: nounwind uwtable
define internal range(i32 -1, 1) i32 @hwloc__libxml_import_next_attr(ptr noundef captures(none) %0, ptr noundef writeonly captures(none) %1, ptr noundef writeonly captures(none) %2) #1 {
  %4 = getelementptr inbounds nuw i8, ptr %0, i64 32
  %5 = load ptr, ptr %4, align 8, !tbaa !39
  %.not = icmp eq ptr %5, null
  br i1 %.not, label %8, label %6

6:                                                ; preds = %3
  %7 = getelementptr inbounds nuw i8, ptr %5, i64 48
  br label %12

8:                                                ; preds = %3
  %9 = getelementptr inbounds nuw i8, ptr %0, i64 16
  %10 = load ptr, ptr %9, align 8, !tbaa !39
  %11 = getelementptr inbounds nuw i8, ptr %10, i64 88
  br label %12

12:                                               ; preds = %8, %6
  %.024.in = phi ptr [ %7, %6 ], [ %11, %8 ]
  %.137 = load ptr, ptr %.024.in, align 8, !tbaa !43
  %.not2838 = icmp eq ptr %.137, null
  br i1 %.not2838, label %.loopexit, label %.lr.ph41

.lr.ph41:                                         ; preds = %12
  %13 = getelementptr inbounds nuw i8, ptr %0, i64 8
  br label %14

14:                                               ; preds = %.lr.ph41, %.critedge
  %.139 = phi ptr [ %.137, %.lr.ph41 ], [ %.1, %.critedge ]
  %15 = getelementptr inbounds nuw i8, ptr %.139, i64 8
  %16 = load i32, ptr %15, align 8, !tbaa !44
  %17 = icmp eq i32 %16, 2
  br i1 %17, label %18, label %42

18:                                               ; preds = %14
  %19 = getelementptr inbounds nuw i8, ptr %.139, i64 24
  %.02334 = load ptr, ptr %19, align 8, !tbaa !46
  %.not3035 = icmp eq ptr %.02334, null
  br i1 %.not3035, label %.critedge, label %.lr.ph

.lr.ph:                                           ; preds = %18, %40
  %.02336 = phi ptr [ %.023, %40 ], [ %.02334, %18 ]
  %20 = getelementptr inbounds nuw i8, ptr %.02336, i64 8
  %21 = load i32, ptr %20, align 8, !tbaa !47
  %22 = icmp eq i32 %21, 3
  br i1 %22, label %23, label %31

23:                                               ; preds = %.lr.ph
  %24 = getelementptr inbounds nuw i8, ptr %.02336, i64 80
  %25 = load ptr, ptr %24, align 8, !tbaa !48
  %.not32 = icmp eq ptr %25, null
  br i1 %.not32, label %40, label %26

26:                                               ; preds = %23
  %27 = getelementptr inbounds nuw i8, ptr %.02336, i64 80
  %28 = getelementptr inbounds nuw i8, ptr %.139, i64 16
  %29 = load ptr, ptr %28, align 8, !tbaa !49
  store ptr %29, ptr %1, align 8, !tbaa !15
  %30 = load ptr, ptr %27, align 8, !tbaa !48
  store ptr %30, ptr %2, align 8, !tbaa !15
  store ptr %.139, ptr %4, align 8, !tbaa !39
  br label %.loopexit

31:                                               ; preds = %.lr.ph
  %32 = tail call i32 @hwloc__xml_verbose() #11
  %.not31 = icmp eq i32 %32, 0
  br i1 %.not31, label %40, label %33

33:                                               ; preds = %31
  %34 = load ptr, ptr @stderr, align 8, !tbaa !16
  %35 = load ptr, ptr %13, align 8, !tbaa !18
  %36 = getelementptr inbounds nuw i8, ptr %35, i64 72
  %37 = load ptr, ptr %36, align 8, !tbaa !22
  %38 = load i32, ptr %20, align 8, !tbaa !47
  %39 = tail call i32 (ptr, ptr, ...) @fprintf(ptr noundef %34, ptr noundef nonnull @.str.12, ptr noundef %37, i32 noundef %38) #13
  br label %40

40:                                               ; preds = %23, %33, %31
  %41 = getelementptr inbounds nuw i8, ptr %.02336, i64 48
  %.023 = load ptr, ptr %41, align 8, !tbaa !46
  %.not30 = icmp eq ptr %.023, null
  br i1 %.not30, label %.critedge, label %.lr.ph, !llvm.loop !50

42:                                               ; preds = %14
  %43 = tail call i32 @hwloc__xml_verbose() #11
  %.not29 = icmp eq i32 %43, 0
  br i1 %.not29, label %.critedge, label %44

44:                                               ; preds = %42
  %45 = load ptr, ptr @stderr, align 8, !tbaa !16
  %46 = load ptr, ptr %13, align 8, !tbaa !18
  %47 = getelementptr inbounds nuw i8, ptr %46, i64 72
  %48 = load ptr, ptr %47, align 8, !tbaa !22
  %49 = load i32, ptr %15, align 8, !tbaa !44
  %50 = tail call i32 (ptr, ptr, ...) @fprintf(ptr noundef %45, ptr noundef nonnull @.str.13, ptr noundef %48, i32 noundef %49) #13
  br label %.critedge

.critedge:                                        ; preds = %40, %18, %44, %42
  %51 = getelementptr inbounds nuw i8, ptr %.139, i64 48
  %.1 = load ptr, ptr %51, align 8, !tbaa !43
  %.not28 = icmp eq ptr %.1, null
  br i1 %.not28, label %.loopexit, label %14, !llvm.loop !52

.loopexit:                                        ; preds = %.critedge, %12, %26
  %.2 = phi i32 [ 0, %26 ], [ -1, %12 ], [ -1, %.critedge ]
  ret i32 %.2
}